; Function Attrs: mustprogress nofree nounwind willreturn memory(read, inaccessiblemem: none) uwtable
define noundef signext i8 @_ZNK6icu_7521TimeArrayTimeZoneRule14isEquivalentToERKNS_12TimeZoneRuleE(ptr noundef nonnull readonly align 8 dereferenceable(352) %this, ptr noundef nonnull readonly align 8 dereferenceable(80) %other) unnamed_addr #7 align 2 {
entry:
  %cmp = icmp eq ptr %this, %other
  br i1 %cmp, label %return, label %typeid.end

typeid.end:                                       ; preds = %entry
  %vtable = load ptr, ptr %this, align 8
  %0 = getelementptr inbounds i8, ptr %vtable, i64 -8
  %1 = load ptr, ptr %0, align 8
  %vtable2 = load ptr, ptr %other, align 8
  %2 = getelementptr inbounds i8, ptr %vtable2, i64 -8
  %3 = load ptr, ptr %2, align 8
  %__name.i.i = getelementptr inbounds i8, ptr %1, i64 8
  %4 = load ptr, ptr %__name.i.i, align 8
  %__name2.i.i = getelementptr inbounds i8, ptr %3, i64 8
  %5 = load ptr, ptr %__name2.i.i, align 8
  %cmp.i.i = icmp eq ptr %4, %5
  br i1 %cmp.i.i, label %land.lhs.true.i, label %if.end.i.i

if.end.i.i:                                       ; preds = %typeid.end
  %6 = load i8, ptr %4, align 1
  %cmp4.not.i.i = icmp eq i8 %6, 42
  br i1 %cmp4.not.i.i, label %return, label %_ZNKSt9type_infoneERKS_.exit

_ZNKSt9type_infoneERKS_.exit:                     ; preds = %if.end.i.i
  %7 = load i8, ptr %5, align 1
  %cmp.i.i.i = icmp eq i8 %7, 42
  %cond.idx.i.i.i = zext i1 %cmp.i.i.i to i64
  %cond.i.i.i = getelementptr inbounds i8, ptr %5, i64 %cond.idx.i.i.i
  %call6.i.i = tail call i32 @strcmp(ptr noundef nonnull dereferenceable(1) %4, ptr noundef nonnull dereferenceable(1) %cond.i.i.i) #16
  %cmp7.i.i.not = icmp eq i32 %call6.i.i, 0
  br i1 %cmp7.i.i.not, label %land.lhs.true.i, label %return

land.lhs.true.i:                                  ; preds = %_ZNKSt9type_infoneERKS_.exit, %typeid.end
  %fRawOffset.i = getelementptr inbounds i8, ptr %this, i64 72
  %8 = load i32, ptr %fRawOffset.i, align 8
  %fRawOffset3.i = getelementptr inbounds i8, ptr %other, i64 72
  %9 = load i32, ptr %fRawOffset3.i, align 8
  %cmp4.i = icmp eq i32 %8, %9
  br i1 %cmp4.i, label %_ZNK6icu_7512TimeZoneRule14isEquivalentToERKS0_.exit, label %return

_ZNK6icu_7512TimeZoneRule14isEquivalentToERKS0_.exit: ; preds = %land.lhs.true.i
  %fDSTSavings.i = getelementptr inbounds i8, ptr %this, i64 76
  %10 = load i32, ptr %fDSTSavings.i, align 4
  %fDSTSavings5.i = getelementptr inbounds i8, ptr %other, i64 76
  %11 = load i32, ptr %fDSTSavings5.i, align 4
  %cmp6.i.not = icmp eq i32 %10, %11
  br i1 %cmp6.i.not, label %if.end6, label %return

if.end6:                                          ; preds = %_ZNK6icu_7512TimeZoneRule14isEquivalentToERKS0_.exit
  %fTimeRuleType = getelementptr inbounds i8, ptr %this, i64 80
  %12 = load i32, ptr %fTimeRuleType, align 8
  %fTimeRuleType7 = getelementptr inbounds i8, ptr %other, i64 80
  %13 = load i32, ptr %fTimeRuleType7, align 8
  %cmp8.not = icmp eq i32 %12, %13
  br i1 %cmp8.not, label %lor.lhs.false9, label %return

lor.lhs.false9:                                   ; preds = %if.end6
  %fNumStartTimes = getelementptr inbounds i8, ptr %this, i64 84
  %14 = load i32, ptr %fNumStartTimes, align 4
  %fNumStartTimes10 = getelementptr inbounds i8, ptr %other, i64 84
  %15 = load i32, ptr %fNumStartTimes10, align 4
  %cmp11.not = icmp eq i32 %14, %15
  br i1 %cmp11.not, label %for.cond.preheader, label %return

for.cond.preheader:                               ; preds = %lor.lhs.false9
  %cmp1524 = icmp sgt i32 %14, 0
  br i1 %cmp1524, label %for.body.lr.ph, label %return

for.body.lr.ph:                                   ; preds = %for.cond.preheader
  %fStartTimes = getelementptr inbounds i8, ptr %this, i64 88
  %16 = load ptr, ptr %fStartTimes, align 8
  %fStartTimes16 = getelementptr inbounds i8, ptr %other, i64 88
  %17 = load ptr, ptr %fStartTimes16, align 8
  %wide.trip.count = zext nneg i32 %14 to i64
  br label %for.body

for.cond:                                         ; preds = %for.body
  %indvars.iv.next = add nuw nsw i64 %indvars.iv, 1
  %exitcond.not = icmp eq i64 %indvars.iv.next, %wide.trip.count
  br i1 %exitcond.not, label %return, label %for.body, !llvm.loop !7

for.body:                                         ; preds = %for.body.lr.ph, %for.cond
  %indvars.iv = phi i64 [ 0, %for.body.lr.ph ], [ %indvars.iv.next, %for.cond ]
  %arrayidx = getelementptr inbounds double, ptr %16, i64 %indvars.iv
  %18 = load double, ptr %arrayidx, align 8
  %arrayidx18 = getelementptr inbounds double, ptr %17, i64 %indvars.iv
  %19 = load double, ptr %arrayidx18, align 8
  %cmp19 = fcmp une double %18, %19
  br i1 %cmp19, label %return, label %for.cond

return:                                           ; preds = %for.body, %for.cond, %for.cond.preheader, %land.lhs.true.i, %if.end.i.i, %if.end6, %lor.lhs.false9, %_ZNKSt9type_infoneERKS_.exit, %_ZNK6icu_7512TimeZoneRule14isEquivalentToERKS0_.exit, %entry
  %retval.0 = phi i8 [ 1, %entry ], [ 0, %_ZNK6icu_7512TimeZoneRule14isEquivalentToERKS0_.exit ], [ 0, %_ZNKSt9type_infoneERKS_.exit ], [ 0, %lor.lhs.false9 ], [ 0, %if.end6 ], [ 0, %if.end.i.i ], [ 0, %land.lhs.true.i ], [ 1, %for.cond.preheader ], [ 0, %for.body ], [ 1, %for.cond ]
  ret i8 %retval.0
}